target datalayout = "e-m:e-p270:32:32-p271:32:32-p272:64:64-i64:64-i128:128-f80:128-n8:16:32:64-S128"
target triple = "x86_64-pc-linux-gnu"

%class.btAlignedObjectArray.8 = type <{ [4 x i8], i32, i32, [4 x i8], ptr, i8, [7 x i8] }>
%class.PHullResult = type { i32, i32, i32, ptr, %class.btAlignedObjectArray.8 }

; Function Attrs: mustprogress uwtable
define dso_local noundef zeroext i1 @_ZN11HullLibrary11ComputeHullEjPK9btVector3R11PHullResultj(ptr noundef nonnull align 8 dereferenceable(64) %0, i32 noundef %1, ptr noundef %2, ptr noundef nonnull align 8 dereferenceable(56) %3, i32 noundef %4) #8 align 2 {
  %6 = alloca i1, align 1
  %7 = alloca ptr, align 8
  %8 = alloca i32, align 4
  %9 = alloca ptr, align 8
  %10 = alloca ptr, align 8
  %11 = alloca i32, align 4
  %12 = alloca i32, align 4
  %13 = alloca i32, align 4
  %14 = alloca i32, align 4
  store ptr %0, ptr %7, align 8, !tbaa !67
  store i32 %1, ptr %8, align 4, !tbaa !9
  store ptr %2, ptr %9, align 8, !tbaa !17
  store ptr %3, ptr %10, align 8, !tbaa !129
  store i32 %4, ptr %11, align 4, !tbaa !9
  %15 = load ptr, ptr %7, align 8
  call void @llvm.lifetime.start.p0(i64 4, ptr %12) #14
  call void @llvm.lifetime.start.p0(i64 4, ptr %13) #14
  %16 = load ptr, ptr %9, align 8, !tbaa !17
  %17 = load i32, ptr %8, align 4, !tbaa !9
  %18 = load ptr, ptr %10, align 8, !tbaa !129
  %19 = getelementptr inbounds nuw %class.PHullResult, ptr %18, i32 0, i32 4
  %20 = load i32, ptr %11, align 4, !tbaa !9
  %21 = call noundef i32 @_ZN11HullLibrary8calchullEP9btVector3iR20btAlignedObjectArrayIjERii(ptr noundef nonnull align 8 dereferenceable(64) %15, ptr noundef %16, i32 noundef %17, ptr noundef nonnull align 8 dereferenceable(25) %19, ptr noundef nonnull align 4 dereferenceable(4) %12, i32 noundef %20)
  store i32 %21, ptr %13, align 4, !tbaa !9
  %22 = load i32, ptr %13, align 4, !tbaa !9
  %23 = icmp ne i32 %22, 0
  br i1 %23, label %25, label %24

24:                                               ; preds = %5
  store i1 false, ptr %6, align 1
  store i32 1, ptr %14, align 4
  br label %39

25:                                               ; preds = %5
  %26 = load i32, ptr %12, align 4, !tbaa !9
  %27 = mul nsw i32 %26, 3
  %28 = load ptr, ptr %10, align 8, !tbaa !129
  %29 = getelementptr inbounds nuw %class.PHullResult, ptr %28, i32 0, i32 1
  store i32 %27, ptr %29, align 4, !tbaa !131
  %30 = load i32, ptr %12, align 4, !tbaa !9
  %31 = load ptr, ptr %10, align 8, !tbaa !129
  %32 = getelementptr inbounds nuw %class.PHullResult, ptr %31, i32 0, i32 2
  store i32 %30, ptr %32, align 8, !tbaa !133
  %33 = load ptr, ptr %9, align 8, !tbaa !17
  %34 = load ptr, ptr %10, align 8, !tbaa !129
  %35 = getelementptr inbounds nuw %class.PHullResult, ptr %34, i32 0, i32 3
  store ptr %33, ptr %35, align 8, !tbaa !134
  %36 = load i32, ptr %8, align 4, !tbaa !9
  %37 = load ptr, ptr %10, align 8, !tbaa !129
  %38 = getelementptr inbounds nuw %class.PHullResult, ptr %37, i32 0, i32 0
  store i32 %36, ptr %38, align 8, !tbaa !135
  store i1 true, ptr %6, align 1
  store i32 1, ptr %14, align 4
  br label %39

39:                                               ; preds = %25, %24
  call void @llvm.lifetime.end.p0(i64 4, ptr %13) #14
  call void @llvm.lifetime.end.p0(i64 4, ptr %12) #14
  %40 = load i1, ptr %6, align 1
  ret i1 %40
}