; Function Attrs: mustprogress uwtable
define dso_local noundef zeroext i1 @_ZN11HullLibrary11ComputeHullEjPK9btVector3R11PHullResultj(ptr noundef nonnull align 8 captures(none) dereferenceable(64) %0, i32 noundef %1, ptr noundef %2, ptr noundef nonnull align 8 captures(none) dereferenceable(56) %3, i32 noundef %4) local_unnamed_addr #4 align 2 {
  %6 = alloca i32, align 4
  call void @llvm.lifetime.start.p0(i64 4, ptr nonnull %6) #21
  %7 = getelementptr inbounds nuw i8, ptr %3, i64 24
  %8 = call noundef i32 @_ZN11HullLibrary8calchullEP9btVector3iR20btAlignedObjectArrayIjERii(ptr noundef nonnull align 8 dereferenceable(64) %0, ptr noundef %2, i32 noundef %1, ptr noundef nonnull align 8 dereferenceable(25) %7, ptr noundef nonnull align 4 dereferenceable(4) %6, i32 noundef %4)
  %.not = icmp ne i32 %8, 0
  br i1 %.not, label %9, label %15

9:                                                ; preds = %5
  %10 = load i32, ptr %6, align 4, !tbaa !46
  %11 = mul nsw i32 %10, 3
  %12 = getelementptr inbounds nuw i8, ptr %3, i64 4
  store i32 %11, ptr %12, align 4, !tbaa !98
  %13 = getelementptr inbounds nuw i8, ptr %3, i64 8
  store i32 %10, ptr %13, align 8, !tbaa !100
  %14 = getelementptr inbounds nuw i8, ptr %3, i64 16
  store ptr %2, ptr %14, align 8, !tbaa !101
  store i32 %1, ptr %3, align 8, !tbaa !102
  br label %15

15:                                               ; preds = %5, %9
  call void @llvm.lifetime.end.p0(i64 4, ptr nonnull %6) #21
  ret i1 %.not
}